	.file	"file7.c"
	.text
	.globl	f
	.type	f, @function
f:
.LFB23:
	.cfi_startproc
	testl	%edi, %edi
	jns	.L8
	movl	$1, %eax
	ret
.L8:
	pushq	%rbp
	.cfi_def_cfa_offset 16
	.cfi_offset 6, -16
	pushq	%rbx
	.cfi_def_cfa_offset 24
	.cfi_offset 3, -24
	subq	$8, %rsp
	.cfi_def_cfa_offset 32
	movl	%edi, %ebx
	leal	-1(%rdi), %edi
	call	f
	movl	%eax, %ebp
	leal	-2(%rbx), %edi
	call	f
	addl	%ebp, %eax
	addq	$8, %rsp
	.cfi_def_cfa_offset 24
	popq	%rbx
	.cfi_def_cfa_offset 16
	popq	%rbp
	.cfi_def_cfa_offset 8
	ret
	.cfi_endproc
.LFE23:
	.size	f, .-f
	.section	.rodata.str1.1,"aMS",@progbits,1
.LC0:
	.string	"%i\n"
	.text
	.globl	main
	.type	main, @function
main:
.LFB24:
	.cfi_startproc
	subq	$8, %rsp
	.cfi_def_cfa_offset 16
	movl	$5, %edi
	call	f
	movl	%eax, %edx
	leaq	.LC0(%rip), %rsi
	movl	$1, %edi
	movl	$0, %eax
	call	__printf_chk@PLT
	movl	$0, %eax
	addq	$8, %rsp
	.cfi_def_cfa_offset 8
	ret
	.cfi_endproc
.LFE24:
	.size	main, .-main
	.ident	"GCC: (Ubuntu 7.3.0-27ubuntu1~18.04) 7.3.0"
	.section	.note.GNU-stack,"",@progbits
